target datalayout = "e-m:e-p270:32:32-p271:32:32-p272:64:64-i64:64-i128:128-f80:128-n8:16:32:64-S128"
target triple = "x86_64-pc-linux-gnu"

%union.pthread_mutex_t = type { %struct.__pthread_mutex_s }
%struct.__pthread_mutex_s = type { i32, i32, i32, i32, i32, i16, i16, %struct.__pthread_internal_list }
%struct.__pthread_internal_list = type { ptr, ptr }
%struct.forward = type { %struct.slurm_node_alias_addrs_t, i16, i16, ptr, i32, i16, i16 }
%struct.slurm_node_alias_addrs_t = type { i64, ptr, ptr, i32, ptr }
%struct.forward_struct = type { ptr, ptr, i32, i16, %union.pthread_mutex_t, %union.pthread_cond_t, ptr, i32 }
%union.pthread_cond_t = type { %struct.__pthread_cond_s }
%struct.__pthread_cond_s = type { %union.__atomic_wide_counter, %union.__atomic_wide_counter, [2 x i32], [2 x i32], i32, i32, [2 x i32] }
%union.__atomic_wide_counter = type { i64 }
%struct.slurm_protocol_header = type { i16, i16, i16, i32, i16, %struct.forward, %struct.sockaddr_storage, ptr }
%struct.sockaddr_storage = type { i16, [118 x i8], i64 }

@.str.4 = private unnamed_addr constant [42 x i8] c"didn't get a ret_list from forward_struct\00", align 1
@.str.5 = private unnamed_addr constant [27 x i8] c"unable to extract net_cred\00", align 1
@.str.6 = private unnamed_addr constant [33 x i8] c"unable to split forward hostlist\00", align 1

; Function Attrs: nounwind uwtable
define dso_local i32 @forward_msg(ptr noundef %0, ptr noundef %1) #0 {
  %3 = alloca i32, align 4
  %4 = alloca ptr, align 8
  %5 = alloca ptr, align 8
  %6 = alloca ptr, align 8
  %7 = alloca ptr, align 8
  %8 = alloca i32, align 4
  %9 = alloca i32, align 4
  %10 = alloca i32, align 4
  store ptr %0, ptr %4, align 8
  store ptr %1, ptr %5, align 8
  call void @llvm.lifetime.start.p0(i64 8, ptr %6) #8
  store ptr null, ptr %6, align 8
  call void @llvm.lifetime.start.p0(i64 8, ptr %7) #8
  call void @llvm.lifetime.start.p0(i64 4, ptr %8) #8
  store i32 0, ptr %8, align 4
  call void @llvm.lifetime.start.p0(i64 4, ptr %9) #8
  %11 = load ptr, ptr %4, align 8
  %12 = getelementptr inbounds nuw %struct.forward_struct, ptr %11, i32 0, i32 6
  %13 = load ptr, ptr %12, align 8
  %14 = icmp ne ptr %13, null
  br i1 %14, label %17, label %15

15:                                               ; preds = %2
  %16 = call i32 (ptr, ...) @error(ptr noundef @.str.4)
  store i32 -1, ptr %3, align 4
  store i32 1, ptr %10, align 4
  br label %124

17:                                               ; preds = %2
  %18 = load ptr, ptr %5, align 8
  %19 = getelementptr inbounds nuw %struct.slurm_protocol_header, ptr %18, i32 0, i32 5
  %20 = getelementptr inbounds nuw %struct.forward, ptr %19, i32 0, i32 3
  %21 = load ptr, ptr %20, align 8
  %22 = call ptr @hostlist_create(ptr noundef %21)
  store ptr %22, ptr %6, align 8
  %23 = load ptr, ptr %5, align 8
  %24 = getelementptr inbounds nuw %struct.slurm_protocol_header, ptr %23, i32 0, i32 1
  %25 = load i16, ptr %24, align 2
  %26 = zext i16 %25 to i64
  %27 = and i64 %26, 128
  %28 = icmp ne i64 %27, 0
  br i1 %28, label %29, label %62

29:                                               ; preds = %17
  %30 = load ptr, ptr %5, align 8
  %31 = getelementptr inbounds nuw %struct.slurm_protocol_header, ptr %30, i32 0, i32 5
  %32 = getelementptr inbounds nuw %struct.forward, ptr %31, i32 0, i32 0
  %33 = getelementptr inbounds nuw %struct.slurm_node_alias_addrs_t, ptr %32, i32 0, i32 1
  %34 = load ptr, ptr %33, align 8
  %35 = load ptr, ptr %5, align 8
  %36 = getelementptr inbounds nuw %struct.slurm_protocol_header, ptr %35, i32 0, i32 0
  %37 = load i16, ptr %36, align 8
  %38 = call ptr @extract_net_cred(ptr noundef %34, i16 noundef zeroext %37)
  %39 = load ptr, ptr %4, align 8
  %40 = getelementptr inbounds nuw %struct.forward_struct, ptr %39, i32 0, i32 0
  store ptr %38, ptr %40, align 8
  %41 = load ptr, ptr %4, align 8
  %42 = getelementptr inbounds nuw %struct.forward_struct, ptr %41, i32 0, i32 0
  %43 = load ptr, ptr %42, align 8
  %44 = icmp ne ptr %43, null
  br i1 %44, label %48, label %45

45:                                               ; preds = %29
  %46 = call i32 (ptr, ...) @error(ptr noundef @.str.5)
  %47 = load ptr, ptr %6, align 8
  call void @hostlist_destroy(ptr noundef %47)
  store i32 -1, ptr %3, align 4
  store i32 1, ptr %10, align 4
  br label %124

48:                                               ; preds = %29
  %49 = load ptr, ptr %5, align 8
  %50 = getelementptr inbounds nuw %struct.slurm_protocol_header, ptr %49, i32 0, i32 5
  %51 = getelementptr inbounds nuw %struct.forward, ptr %50, i32 0, i32 0
  %52 = getelementptr inbounds nuw %struct.slurm_node_alias_addrs_t, ptr %51, i32 0, i32 1
  %53 = load ptr, ptr %52, align 8
  %54 = load ptr, ptr %4, align 8
  %55 = getelementptr inbounds nuw %struct.forward_struct, ptr %54, i32 0, i32 0
  %56 = load ptr, ptr %55, align 8
  %57 = getelementptr inbounds nuw %struct.slurm_node_alias_addrs_t, ptr %56, i32 0, i32 1
  store ptr %53, ptr %57, align 8
  %58 = load ptr, ptr %5, align 8
  %59 = getelementptr inbounds nuw %struct.slurm_protocol_header, ptr %58, i32 0, i32 5
  %60 = getelementptr inbounds nuw %struct.forward, ptr %59, i32 0, i32 0
  %61 = getelementptr inbounds nuw %struct.slurm_node_alias_addrs_t, ptr %60, i32 0, i32 1
  store ptr null, ptr %61, align 8
  br label %62

62:                                               ; preds = %48, %17
  %63 = load ptr, ptr %6, align 8
  call void @hostlist_uniq(ptr noundef %63)
  %64 = load ptr, ptr %6, align 8
  %65 = load ptr, ptr %5, align 8
  %66 = getelementptr inbounds nuw %struct.slurm_protocol_header, ptr %65, i32 0, i32 5
  %67 = getelementptr inbounds nuw %struct.forward, ptr %66, i32 0, i32 5
  %68 = load i16, ptr %67, align 4
  %69 = call i32 @topology_g_split_hostlist(ptr noundef %64, ptr noundef %7, ptr noundef %8, i16 noundef zeroext %68)
  store i32 %69, ptr %9, align 4
  %70 = icmp eq i32 %69, -1
  br i1 %70, label %71, label %74

71:                                               ; preds = %62
  %72 = call i32 (ptr, ...) @error(ptr noundef @.str.6)
  %73 = load ptr, ptr %6, align 8
  call void @hostlist_destroy(ptr noundef %73)
  store i32 -1, ptr %3, align 4
  store i32 1, ptr %10, align 4
  br label %124

74:                                               ; preds = %62
  %75 = load ptr, ptr %5, align 8
  %76 = getelementptr inbounds nuw %struct.slurm_protocol_header, ptr %75, i32 0, i32 5
  %77 = getelementptr inbounds nuw %struct.forward, ptr %76, i32 0, i32 6
  %78 = load i16, ptr %77, align 2
  %79 = icmp ne i16 %78, 0
  br i1 %79, label %80, label %96

80:                                               ; preds = %74
  %81 = load ptr, ptr %5, align 8
  %82 = getelementptr inbounds nuw %struct.slurm_protocol_header, ptr %81, i32 0, i32 5
  %83 = getelementptr inbounds nuw %struct.forward, ptr %82, i32 0, i32 4
  %84 = load i32, ptr %83, align 8
  %85 = load i32, ptr %9, align 4
  %86 = mul i32 %84, %85
  %87 = load ptr, ptr %5, align 8
  %88 = getelementptr inbounds nuw %struct.slurm_protocol_header, ptr %87, i32 0, i32 5
  %89 = getelementptr inbounds nuw %struct.forward, ptr %88, i32 0, i32 6
  %90 = load i16, ptr %89, align 2
  %91 = zext i16 %90 to i32
  %92 = udiv i32 %86, %91
  %93 = load ptr, ptr %5, align 8
  %94 = getelementptr inbounds nuw %struct.slurm_protocol_header, ptr %93, i32 0, i32 5
  %95 = getelementptr inbounds nuw %struct.forward, ptr %94, i32 0, i32 4
  store i32 %92, ptr %95, align 8
  br label %104

96:                                               ; preds = %74
  %97 = load i32, ptr %9, align 4
  %98 = mul nsw i32 2, %97
  %99 = load ptr, ptr %5, align 8
  %100 = getelementptr inbounds nuw %struct.slurm_protocol_header, ptr %99, i32 0, i32 5
  %101 = getelementptr inbounds nuw %struct.forward, ptr %100, i32 0, i32 4
  %102 = load i32, ptr %101, align 8
  %103 = mul i32 %102, %98
  store i32 %103, ptr %101, align 8
  br label %104

104:                                              ; preds = %96, %80
  %105 = load i32, ptr %9, align 4
  %106 = trunc i32 %105 to i16
  %107 = load ptr, ptr %5, align 8
  %108 = getelementptr inbounds nuw %struct.slurm_protocol_header, ptr %107, i32 0, i32 5
  %109 = getelementptr inbounds nuw %struct.forward, ptr %108, i32 0, i32 6
  store i16 %106, ptr %109, align 2
  %110 = load ptr, ptr %5, align 8
  %111 = getelementptr inbounds nuw %struct.slurm_protocol_header, ptr %110, i32 0, i32 5
  %112 = getelementptr inbounds nuw %struct.forward, ptr %111, i32 0, i32 4
  %113 = load i32, ptr %112, align 8
  %114 = load ptr, ptr %4, align 8
  %115 = getelementptr inbounds nuw %struct.forward_struct, ptr %114, i32 0, i32 7
  store i32 %113, ptr %115, align 8
  %116 = load ptr, ptr %7, align 8
  %117 = load ptr, ptr %4, align 8
  %118 = load ptr, ptr %5, align 8
  %119 = load ptr, ptr %4, align 8
  %120 = getelementptr inbounds nuw %struct.forward_struct, ptr %119, i32 0, i32 7
  %121 = load i32, ptr %120, align 8
  %122 = load i32, ptr %8, align 4
  call void @_forward_msg_internal(ptr noundef null, ptr noundef %116, ptr noundef %117, ptr noundef %118, i32 noundef %121, i32 noundef %122)
  call void @slurm_xfree(ptr noundef %7)
  %123 = load ptr, ptr %6, align 8
  call void @hostlist_destroy(ptr noundef %123)
  store i32 0, ptr %3, align 4
  store i32 1, ptr %10, align 4
  br label %124

124:                                              ; preds = %104, %71, %45, %15
  call void @llvm.lifetime.end.p0(i64 4, ptr %9) #8
  call void @llvm.lifetime.end.p0(i64 4, ptr %8) #8
  call void @llvm.lifetime.end.p0(i64 8, ptr %7) #8
  call void @llvm.lifetime.end.p0(i64 8, ptr %6) #8
  %125 = load i32, ptr %3, align 4
  ret i32 %125
}