; Function Attrs: nounwind uwtable
define dso_local range(i32 -1, 1) i32 @forward_msg(ptr noundef %0, ptr noundef captures(none) %1) local_unnamed_addr #0 {
  %3 = alloca ptr, align 8
  %4 = alloca i32, align 4
  call void @llvm.lifetime.start.p0(i64 8, ptr nonnull %3) #10
  call void @llvm.lifetime.start.p0(i64 4, ptr nonnull %4) #10
  store i32 0, ptr %4, align 4
  %5 = getelementptr inbounds nuw i8, ptr %0, i64 112
  %6 = load ptr, ptr %5, align 8
  %.not = icmp eq ptr %6, null
  br i1 %.not, label %7, label %9

7:                                                ; preds = %2
  %8 = tail call i32 (ptr, ...) @error(ptr noundef nonnull @.str.4) #10
  br label %53

9:                                                ; preds = %2
  %10 = getelementptr inbounds nuw i8, ptr %1, i64 64
  %11 = load ptr, ptr %10, align 8
  %12 = tail call ptr @hostlist_create(ptr noundef %11) #10
  %13 = getelementptr inbounds nuw i8, ptr %1, i64 2
  %14 = load i16, ptr %13, align 2
  %15 = and i16 %14, 128
  %.not33 = icmp eq i16 %15, 0
  br i1 %.not33, label %26, label %16

16:                                               ; preds = %9
  %17 = getelementptr inbounds nuw i8, ptr %1, i64 24
  %18 = load ptr, ptr %17, align 8
  %19 = load i16, ptr %1, align 8
  %20 = tail call ptr @extract_net_cred(ptr noundef %18, i16 noundef zeroext %19) #10
  store ptr %20, ptr %0, align 8
  %.not34 = icmp eq ptr %20, null
  br i1 %.not34, label %21, label %23

21:                                               ; preds = %16
  %22 = tail call i32 (ptr, ...) @error(ptr noundef nonnull @.str.5) #10
  tail call void @hostlist_destroy(ptr noundef %12) #10
  br label %53

23:                                               ; preds = %16
  %24 = load ptr, ptr %17, align 8
  %25 = getelementptr inbounds nuw i8, ptr %20, i64 8
  store ptr %24, ptr %25, align 8
  store ptr null, ptr %17, align 8
  br label %26

26:                                               ; preds = %23, %9
  tail call void @hostlist_uniq(ptr noundef %12) #10
  %27 = getelementptr inbounds nuw i8, ptr %1, i64 76
  %28 = load i16, ptr %27, align 4
  %29 = call i32 @topology_g_split_hostlist(ptr noundef %12, ptr noundef nonnull %3, ptr noundef nonnull %4, i16 noundef zeroext %28) #10
  %30 = icmp eq i32 %29, -1
  br i1 %30, label %31, label %33

31:                                               ; preds = %26
  %32 = call i32 (ptr, ...) @error(ptr noundef nonnull @.str.6) #10
  call void @hostlist_destroy(ptr noundef %12) #10
  br label %53

33:                                               ; preds = %26
  %34 = getelementptr inbounds nuw i8, ptr %1, i64 78
  %35 = load i16, ptr %34, align 2
  %.not35 = icmp eq i16 %35, 0
  br i1 %.not35, label %42, label %36

36:                                               ; preds = %33
  %37 = getelementptr inbounds nuw i8, ptr %1, i64 72
  %38 = load i32, ptr %37, align 8
  %39 = mul i32 %38, %29
  %40 = zext i16 %35 to i32
  %41 = udiv i32 %39, %40
  store i32 %41, ptr %37, align 8
  br label %47

42:                                               ; preds = %33
  %43 = shl nsw i32 %29, 1
  %44 = getelementptr inbounds nuw i8, ptr %1, i64 72
  %45 = load i32, ptr %44, align 8
  %46 = mul i32 %43, %45
  store i32 %46, ptr %44, align 8
  br label %47

47:                                               ; preds = %42, %36
  %48 = phi i32 [ %46, %42 ], [ %41, %36 ]
  %49 = trunc i32 %29 to i16
  store i16 %49, ptr %34, align 2
  %50 = getelementptr inbounds nuw i8, ptr %0, i64 120
  store i32 %48, ptr %50, align 8
  %51 = load ptr, ptr %3, align 8
  %52 = load i32, ptr %4, align 4
  call fastcc void @_forward_msg_internal(ptr noundef null, ptr noundef %51, ptr noundef nonnull %0, ptr noundef nonnull %1, i32 noundef %48, i32 noundef %52)
  call void @slurm_xfree(ptr noundef nonnull %3) #10
  call void @hostlist_destroy(ptr noundef %12) #10
  br label %53

53:                                               ; preds = %47, %31, %21, %7
  %.0 = phi i32 [ -1, %31 ], [ 0, %47 ], [ -1, %21 ], [ -1, %7 ]
  call void @llvm.lifetime.end.p0(i64 4, ptr nonnull %4) #10
  call void @llvm.lifetime.end.p0(i64 8, ptr nonnull %3) #10
  ret i32 %.0
}